; ModuleID = 'source-C-CXX/44/1832.c'
source_filename = "source-C-CXX/44/1832.c"
target datalayout = "e-m:e-p270:32:32-p271:32:32-p272:64:64-i64:64-f80:128-n8:16:32:64-S128"
target triple = "x86_64-pc-linux-gnu"

@.str = private unnamed_addr constant [5 x i8] c"%s%s\00", align 1
@.str.1 = private unnamed_addr constant [4 x i8] c"%d\0A\00", align 1

; Function Attrs: nofree nounwind sspstrong uwtable
define dso_local i32 @main() local_unnamed_addr #0 {
  %1 = alloca [100 x i8], align 16
  %2 = alloca [100 x i8], align 16
  %3 = getelementptr inbounds [100 x i8], [100 x i8]* %1, i64 0, i64 0
  call void @llvm.lifetime.start.p0i8(i64 100, i8* nonnull %3) #4
  %4 = getelementptr inbounds [100 x i8], [100 x i8]* %2, i64 0, i64 0
  call void @llvm.lifetime.start.p0i8(i64 100, i8* nonnull %4) #4
  %5 = call i32 (i8*, ...) @__isoc99_scanf(i8* getelementptr inbounds ([5 x i8], [5 x i8]* @.str, i64 0, i64 0), i8* nonnull %3, i8* nonnull %4)
  %6 = load i8, i8* %4, align 16, !tbaa !5
  %7 = icmp eq i8 %6, 0
  br i1 %7, label %32, label %8

8:                                                ; preds = %0, %23
  %9 = phi i64 [ %25, %23 ], [ 0, %0 ]
  %10 = phi i8 [ %28, %23 ], [ %6, %0 ]
  %11 = phi i32 [ %24, %23 ], [ 0, %0 ]
  %12 = phi i32 [ %26, %23 ], [ 0, %0 ]
  %13 = sext i32 %11 to i64
  %14 = getelementptr inbounds [100 x i8], [100 x i8]* %1, i64 0, i64 %13
  %15 = load i8, i8* %14, align 1, !tbaa !5
  %16 = icmp eq i8 %10, %15
  br i1 %16, label %17, label %23

17:                                               ; preds = %8
  %18 = add nsw i32 %11, 1
  %19 = sext i32 %18 to i64
  %20 = call i64 @strlen(i8* noundef nonnull %3) #5
  %21 = add i64 %20, -1
  %22 = icmp eq i64 %21, %19
  br i1 %22, label %30, label %23

23:                                               ; preds = %8, %17
  %24 = phi i32 [ %18, %17 ], [ 0, %8 ]
  %25 = add nuw i64 %9, 1
  %26 = add nuw nsw i32 %12, 1
  %27 = getelementptr inbounds [100 x i8], [100 x i8]* %2, i64 0, i64 %25
  %28 = load i8, i8* %27, align 1, !tbaa !5
  %29 = icmp eq i8 %28, 0
  br i1 %29, label %32, label %8, !llvm.loop !8

30:                                               ; preds = %17
  %31 = trunc i64 %9 to i32
  br label %32

32:                                               ; preds = %23, %30, %0
  %33 = phi i32 [ 0, %0 ], [ %31, %30 ], [ %26, %23 ]
  %34 = zext i32 %33 to i64
  %35 = call i64 @strlen(i8* noundef nonnull %3) #5
  %36 = add nuw nsw i64 %34, 2
  %37 = sub i64 %36, %35
  %38 = call i32 (i8*, ...) @printf(i8* nonnull dereferenceable(1) getelementptr inbounds ([4 x i8], [4 x i8]* @.str.1, i64 0, i64 0), i64 %37)
  call void @llvm.lifetime.end.p0i8(i64 100, i8* nonnull %4) #4
  call void @llvm.lifetime.end.p0i8(i64 100, i8* nonnull %3) #4
  ret i32 0
}

; Function Attrs: argmemonly mustprogress nofree nosync nounwind willreturn
declare void @llvm.lifetime.start.p0i8(i64 immarg, i8* nocapture) #1

; Function Attrs: nofree nounwind
declare noundef i32 @__isoc99_scanf(i8* nocapture noundef readonly, ...) local_unnamed_addr #2

; Function Attrs: argmemonly mustprogress nofree nounwind readonly willreturn
declare i64 @strlen(i8* nocapture) local_unnamed_addr #3

; Function Attrs: nofree nounwind
declare noundef i32 @printf(i8* nocapture noundef readonly, ...) local_unnamed_addr #2

; Function Attrs: argmemonly mustprogress nofree nosync nounwind willreturn
declare void @llvm.lifetime.end.p0i8(i64 immarg, i8* nocapture) #1


!llvm.module.flags = !{!0, !1, !2, !3}
!llvm.ident = !{!4}

!0 = !{i32 1, !"wchar_size", i32 4}
!1 = !{i32 7, !"PIC Level", i32 2}
!2 = !{i32 7, !"PIE Level", i32 2}
!3 = !{i32 7, !"uwtable", i32 1}
!4 = !{!"clang version 13.0.0"}
!5 = !{!6, !6, i64 0}
!6 = !{!"omnipotent char", !7, i64 0}
!7 = !{!"Simple C/C++ TBAA"}
!8 = distinct !{!8, !9}
!9 = !{!"llvm.loop.mustprogress"}
